target datalayout = "e-m:e-p270:32:32-p271:32:32-p272:64:64-i64:64-i128:128-f80:128-n8:16:32:64-S128"
target triple = "x86_64-pc-linux-gnu"

@__const.Abc_Tt4CheckTwoLevel.f = private unnamed_addr constant [4 x i32] [i32 43690, i32 52428, i32 61680, i32 65280], align 16
@__const.Abc_Tt4CheckTwoLevel.r = private unnamed_addr constant [4 x i32] [i32 21845, i32 13107, i32 3855, i32 255], align 16

; Function Attrs: inlinehint nounwind uwtable
define internal i32 @Abc_Tt4Equal3(i32 noundef %0, i32 noundef %1, i32 noundef %2, i32 noundef %3) #0 {
  %5 = alloca i32, align 4
  %6 = alloca i32, align 4
  %7 = alloca i32, align 4
  %8 = alloca i32, align 4
  %9 = alloca i32, align 4
  store i32 %0, ptr %6, align 4, !tbaa !34
  store i32 %1, ptr %7, align 4, !tbaa !34
  store i32 %2, ptr %8, align 4, !tbaa !34
  store i32 %3, ptr %9, align 4, !tbaa !34
  %10 = load i32, ptr %6, align 4, !tbaa !34
  %11 = load i32, ptr %7, align 4, !tbaa !34
  %12 = icmp eq i32 %10, %11
  br i1 %12, label %13, label %18

13:                                               ; preds = %4
  %14 = load i32, ptr %6, align 4, !tbaa !34
  %15 = load i32, ptr %8, align 4, !tbaa !34
  %16 = icmp eq i32 %14, %15
  br i1 %16, label %17, label %18

17:                                               ; preds = %13
  store i32 3, ptr %5, align 4
  br label %46

18:                                               ; preds = %13, %4
  %19 = load i32, ptr %6, align 4, !tbaa !34
  %20 = load i32, ptr %7, align 4, !tbaa !34
  %21 = icmp eq i32 %19, %20
  br i1 %21, label %22, label %27

22:                                               ; preds = %18
  %23 = load i32, ptr %6, align 4, !tbaa !34
  %24 = load i32, ptr %9, align 4, !tbaa !34
  %25 = icmp eq i32 %23, %24
  br i1 %25, label %26, label %27

26:                                               ; preds = %22
  store i32 2, ptr %5, align 4
  br label %46

27:                                               ; preds = %22, %18
  %28 = load i32, ptr %6, align 4, !tbaa !34
  %29 = load i32, ptr %9, align 4, !tbaa !34
  %30 = icmp eq i32 %28, %29
  br i1 %30, label %31, label %36

31:                                               ; preds = %27
  %32 = load i32, ptr %6, align 4, !tbaa !34
  %33 = load i32, ptr %8, align 4, !tbaa !34
  %34 = icmp eq i32 %32, %33
  br i1 %34, label %35, label %36

35:                                               ; preds = %31
  store i32 1, ptr %5, align 4
  br label %46

36:                                               ; preds = %31, %27
  %37 = load i32, ptr %9, align 4, !tbaa !34
  %38 = load i32, ptr %7, align 4, !tbaa !34
  %39 = icmp eq i32 %37, %38
  br i1 %39, label %40, label %45

40:                                               ; preds = %36
  %41 = load i32, ptr %9, align 4, !tbaa !34
  %42 = load i32, ptr %8, align 4, !tbaa !34
  %43 = icmp eq i32 %41, %42
  br i1 %43, label %44, label %45

44:                                               ; preds = %40
  store i32 0, ptr %5, align 4
  br label %46

45:                                               ; preds = %40, %36
  store i32 -1, ptr %5, align 4
  br label %46

46:                                               ; preds = %45, %44, %35, %26, %17
  %47 = load i32, ptr %5, align 4
  ret i32 %47
}

; Function Attrs: inlinehint nounwind uwtable
define internal i32 @Abc_Tt4Check2(i32 noundef %0, i32 noundef %1, i32 noundef %2, ptr noundef %3, ptr noundef %4) #0 {
  %6 = alloca i32, align 4
  %7 = alloca i32, align 4
  %8 = alloca i32, align 4
  %9 = alloca ptr, align 8
  %10 = alloca ptr, align 8
  %11 = alloca i32, align 4
  %12 = alloca i32, align 4
  %13 = alloca i32, align 4
  %14 = alloca i32, align 4
  %15 = alloca i32, align 4
  %16 = alloca i32, align 4
  store i32 %0, ptr %6, align 4, !tbaa !34
  store i32 %1, ptr %7, align 4, !tbaa !34
  store i32 %2, ptr %8, align 4, !tbaa !34
  store ptr %3, ptr %9, align 8, !tbaa !174
  store ptr %4, ptr %10, align 8, !tbaa !174
  call void @llvm.lifetime.start.p0(i64 4, ptr %11) #12
  %17 = load i32, ptr %6, align 4, !tbaa !34
  %18 = load ptr, ptr %10, align 8, !tbaa !174
  %19 = load i32, ptr %8, align 4, !tbaa !34
  %20 = sext i32 %19 to i64
  %21 = getelementptr inbounds i32, ptr %18, i64 %20
  %22 = load i32, ptr %21, align 4, !tbaa !34
  %23 = and i32 %17, %22
  store i32 %23, ptr %11, align 4, !tbaa !34
  call void @llvm.lifetime.start.p0(i64 4, ptr %12) #12
  %24 = load i32, ptr %6, align 4, !tbaa !34
  %25 = load ptr, ptr %9, align 8, !tbaa !174
  %26 = load i32, ptr %8, align 4, !tbaa !34
  %27 = sext i32 %26 to i64
  %28 = getelementptr inbounds i32, ptr %25, i64 %27
  %29 = load i32, ptr %28, align 4, !tbaa !34
  %30 = and i32 %24, %29
  %31 = load i32, ptr %8, align 4, !tbaa !34
  %32 = shl i32 1, %31
  %33 = ashr i32 %30, %32
  store i32 %33, ptr %12, align 4, !tbaa !34
  call void @llvm.lifetime.start.p0(i64 4, ptr %13) #12
  %34 = load i32, ptr %11, align 4, !tbaa !34
  %35 = load ptr, ptr %10, align 8, !tbaa !174
  %36 = load i32, ptr %7, align 4, !tbaa !34
  %37 = sext i32 %36 to i64
  %38 = getelementptr inbounds i32, ptr %35, i64 %37
  %39 = load i32, ptr %38, align 4, !tbaa !34
  %40 = and i32 %34, %39
  store i32 %40, ptr %13, align 4, !tbaa !34
  call void @llvm.lifetime.start.p0(i64 4, ptr %14) #12
  %41 = load i32, ptr %11, align 4, !tbaa !34
  %42 = load ptr, ptr %9, align 8, !tbaa !174
  %43 = load i32, ptr %7, align 4, !tbaa !34
  %44 = sext i32 %43 to i64
  %45 = getelementptr inbounds i32, ptr %42, i64 %44
  %46 = load i32, ptr %45, align 4, !tbaa !34
  %47 = and i32 %41, %46
  %48 = load i32, ptr %7, align 4, !tbaa !34
  %49 = shl i32 1, %48
  %50 = ashr i32 %47, %49
  store i32 %50, ptr %14, align 4, !tbaa !34
  call void @llvm.lifetime.start.p0(i64 4, ptr %15) #12
  %51 = load i32, ptr %12, align 4, !tbaa !34
  %52 = load ptr, ptr %10, align 8, !tbaa !174
  %53 = load i32, ptr %7, align 4, !tbaa !34
  %54 = sext i32 %53 to i64
  %55 = getelementptr inbounds i32, ptr %52, i64 %54
  %56 = load i32, ptr %55, align 4, !tbaa !34
  %57 = and i32 %51, %56
  store i32 %57, ptr %15, align 4, !tbaa !34
  call void @llvm.lifetime.start.p0(i64 4, ptr %16) #12
  %58 = load i32, ptr %12, align 4, !tbaa !34
  %59 = load ptr, ptr %9, align 8, !tbaa !174
  %60 = load i32, ptr %7, align 4, !tbaa !34
  %61 = sext i32 %60 to i64
  %62 = getelementptr inbounds i32, ptr %59, i64 %61
  %63 = load i32, ptr %62, align 4, !tbaa !34
  %64 = and i32 %58, %63
  %65 = load i32, ptr %7, align 4, !tbaa !34
  %66 = shl i32 1, %65
  %67 = ashr i32 %64, %66
  store i32 %67, ptr %16, align 4, !tbaa !34
  %68 = load i32, ptr %13, align 4, !tbaa !34
  %69 = load i32, ptr %14, align 4, !tbaa !34
  %70 = load i32, ptr %15, align 4, !tbaa !34
  %71 = load i32, ptr %16, align 4, !tbaa !34
  %72 = call i32 @Abc_Tt4Equal3(i32 noundef %68, i32 noundef %69, i32 noundef %70, i32 noundef %71)
  call void @llvm.lifetime.end.p0(i64 4, ptr %16) #12
  call void @llvm.lifetime.end.p0(i64 4, ptr %15) #12
  call void @llvm.lifetime.end.p0(i64 4, ptr %14) #12
  call void @llvm.lifetime.end.p0(i64 4, ptr %13) #12
  call void @llvm.lifetime.end.p0(i64 4, ptr %12) #12
  call void @llvm.lifetime.end.p0(i64 4, ptr %11) #12
  ret i32 %72
}

; Function Attrs: inlinehint nounwind uwtable
define internal i32 @Abc_Tt4CheckTwoLevel(i32 noundef %0) #0 {
  %2 = alloca i32, align 4
  %3 = alloca i32, align 4
  %4 = alloca i32, align 4
  %5 = alloca i32, align 4
  %6 = alloca [4 x i32], align 16
  %7 = alloca [4 x i32], align 16
  %8 = alloca i32, align 4
  store i32 %0, ptr %3, align 4, !tbaa !34
  call void @llvm.lifetime.start.p0(i64 4, ptr %4) #12
  call void @llvm.lifetime.start.p0(i64 4, ptr %5) #12
  call void @llvm.lifetime.start.p0(i64 16, ptr %6) #12
  call void @llvm.memcpy.p0.p0.i64(ptr align 16 %6, ptr align 16 @__const.Abc_Tt4CheckTwoLevel.f, i64 16, i1 false)
  call void @llvm.lifetime.start.p0(i64 16, ptr %7) #12
  call void @llvm.memcpy.p0.p0.i64(ptr align 16 %7, ptr align 16 @__const.Abc_Tt4CheckTwoLevel.r, i64 16, i1 false)
  %9 = load i32, ptr %3, align 4, !tbaa !34
  %10 = getelementptr inbounds [4 x i32], ptr %6, i64 0, i64 0
  %11 = getelementptr inbounds [4 x i32], ptr %7, i64 0, i64 0
  %12 = call i32 @Abc_Tt4Check2(i32 noundef %9, i32 noundef 0, i32 noundef 1, ptr noundef %10, ptr noundef %11)
  store i32 %12, ptr %4, align 4, !tbaa !34
  %13 = icmp sge i32 %12, 0
  br i1 %13, label %14, label %26

14:                                               ; preds = %1
  %15 = load i32, ptr %3, align 4, !tbaa !34
  %16 = getelementptr inbounds [4 x i32], ptr %6, i64 0, i64 0
  %17 = getelementptr inbounds [4 x i32], ptr %7, i64 0, i64 0
  %18 = call i32 @Abc_Tt4Check2(i32 noundef %15, i32 noundef 2, i32 noundef 3, ptr noundef %16, ptr noundef %17)
  store i32 %18, ptr %5, align 4, !tbaa !34
  %19 = icmp sge i32 %18, 0
  br i1 %19, label %20, label %26

20:                                               ; preds = %14
  %21 = load i32, ptr %5, align 4, !tbaa !34
  %22 = shl i32 %21, 2
  %23 = or i32 16, %22
  %24 = load i32, ptr %4, align 4, !tbaa !34
  %25 = or i32 %23, %24
  store i32 %25, ptr %2, align 4
  store i32 1, ptr %8, align 4
  br label %63

26:                                               ; preds = %14, %1
  %27 = load i32, ptr %3, align 4, !tbaa !34
  %28 = getelementptr inbounds [4 x i32], ptr %6, i64 0, i64 0
  %29 = getelementptr inbounds [4 x i32], ptr %7, i64 0, i64 0
  %30 = call i32 @Abc_Tt4Check2(i32 noundef %27, i32 noundef 0, i32 noundef 2, ptr noundef %28, ptr noundef %29)
  store i32 %30, ptr %4, align 4, !tbaa !34
  %31 = icmp sge i32 %30, 0
  br i1 %31, label %32, label %44

32:                                               ; preds = %26
  %33 = load i32, ptr %3, align 4, !tbaa !34
  %34 = getelementptr inbounds [4 x i32], ptr %6, i64 0, i64 0
  %35 = getelementptr inbounds [4 x i32], ptr %7, i64 0, i64 0
  %36 = call i32 @Abc_Tt4Check2(i32 noundef %33, i32 noundef 1, i32 noundef 3, ptr noundef %34, ptr noundef %35)
  store i32 %36, ptr %5, align 4, !tbaa !34
  %37 = icmp sge i32 %36, 0
  br i1 %37, label %38, label %44

38:                                               ; preds = %32
  %39 = load i32, ptr %5, align 4, !tbaa !34
  %40 = shl i32 %39, 2
  %41 = or i32 32, %40
  %42 = load i32, ptr %4, align 4, !tbaa !34
  %43 = or i32 %41, %42
  store i32 %43, ptr %2, align 4
  store i32 1, ptr %8, align 4
  br label %63

44:                                               ; preds = %32, %26
  %45 = load i32, ptr %3, align 4, !tbaa !34
  %46 = getelementptr inbounds [4 x i32], ptr %6, i64 0, i64 0
  %47 = getelementptr inbounds [4 x i32], ptr %7, i64 0, i64 0
  %48 = call i32 @Abc_Tt4Check2(i32 noundef %45, i32 noundef 0, i32 noundef 3, ptr noundef %46, ptr noundef %47)
  store i32 %48, ptr %4, align 4, !tbaa !34
  %49 = icmp sge i32 %48, 0
  br i1 %49, label %50, label %62

50:                                               ; preds = %44
  %51 = load i32, ptr %3, align 4, !tbaa !34
  %52 = getelementptr inbounds [4 x i32], ptr %6, i64 0, i64 0
  %53 = getelementptr inbounds [4 x i32], ptr %7, i64 0, i64 0
  %54 = call i32 @Abc_Tt4Check2(i32 noundef %51, i32 noundef 1, i32 noundef 2, ptr noundef %52, ptr noundef %53)
  store i32 %54, ptr %5, align 4, !tbaa !34
  %55 = icmp sge i32 %54, 0
  br i1 %55, label %56, label %62

56:                                               ; preds = %50
  %57 = load i32, ptr %5, align 4, !tbaa !34
  %58 = shl i32 %57, 2
  %59 = or i32 48, %58
  %60 = load i32, ptr %4, align 4, !tbaa !34
  %61 = or i32 %59, %60
  store i32 %61, ptr %2, align 4
  store i32 1, ptr %8, align 4
  br label %63

62:                                               ; preds = %50, %44
  store i32 -1, ptr %2, align 4
  store i32 1, ptr %8, align 4
  br label %63

63:                                               ; preds = %62, %56, %38, %20
  call void @llvm.lifetime.end.p0(i64 16, ptr %7) #12
  call void @llvm.lifetime.end.p0(i64 16, ptr %6) #12
  call void @llvm.lifetime.end.p0(i64 4, ptr %5) #12
  call void @llvm.lifetime.end.p0(i64 4, ptr %4) #12
  %64 = load i32, ptr %2, align 4
  ret i32 %64
}