; Function Attrs: inlinehint mustprogress nofree norecurse nosync nounwind willreturn memory(none) uwtable
define internal fastcc range(i32 -1, 64) i32 @Abc_Tt4CheckTwoLevel(i32 noundef %0) unnamed_addr #16 {
  %2 = lshr i32 %0, 2
  %3 = and i32 %0, 4369
  %4 = lshr i32 %0, 1
  %5 = and i32 %4, 4369
  %6 = and i32 %2, 4369
  %7 = lshr i32 %0, 3
  %8 = and i32 %7, 4369
  %9 = icmp eq i32 %3, %5
  %10 = icmp eq i32 %3, %6
  %or.cond.i.i = and i1 %10, %9
  br i1 %or.cond.i.i, label %Abc_Tt4Check2.exit.thread, label %11

11:                                               ; preds = %1
  %12 = icmp eq i32 %3, %8
  %or.cond19.i.i = and i1 %9, %12
  br i1 %or.cond19.i.i, label %Abc_Tt4Check2.exit.thread, label %13

13:                                               ; preds = %11
  %or.cond20.i.i = and i1 %10, %12
  br i1 %or.cond20.i.i, label %Abc_Tt4Check2.exit.thread, label %Abc_Tt4Check2.exit

Abc_Tt4Check2.exit:                               ; preds = %13
  %14 = icmp eq i32 %8, %5
  %15 = icmp eq i32 %8, %6
  %or.cond21.not.i.i.not = and i1 %14, %15
  br i1 %or.cond21.not.i.i.not, label %Abc_Tt4Check2.exit.thread, label %Abc_Tt4Check2.exit._crit_edge

Abc_Tt4Check2.exit._crit_edge:                    ; preds = %Abc_Tt4Check2.exit
  %.pre = lshr i32 %0, 4
  br label %31

Abc_Tt4Check2.exit.thread:                        ; preds = %13, %11, %1, %Abc_Tt4Check2.exit
  %.0.i.i75 = phi i32 [ 16, %Abc_Tt4Check2.exit ], [ 17, %13 ], [ 18, %11 ], [ 19, %1 ]
  %16 = lshr i32 %0, 8
  %17 = and i32 %0, 15
  %18 = lshr i32 %0, 4
  %19 = and i32 %18, 15
  %20 = and i32 %16, 15
  %21 = lshr i32 %0, 12
  %22 = and i32 %21, 15
  %23 = icmp eq i32 %17, %19
  %24 = icmp eq i32 %17, %20
  %or.cond.i.i19 = and i1 %24, %23
  br i1 %or.cond.i.i19, label %Abc_Tt4Check2.exit25.thread, label %25

25:                                               ; preds = %Abc_Tt4Check2.exit.thread
  %26 = icmp eq i32 %17, %22
  %or.cond19.i.i20 = and i1 %23, %26
  br i1 %or.cond19.i.i20, label %Abc_Tt4Check2.exit25.thread, label %27

27:                                               ; preds = %25
  %or.cond20.i.i21 = and i1 %24, %26
  br i1 %or.cond20.i.i21, label %Abc_Tt4Check2.exit25.thread, label %Abc_Tt4Check2.exit25

Abc_Tt4Check2.exit25:                             ; preds = %27
  %28 = icmp eq i32 %22, %19
  %29 = icmp eq i32 %22, %20
  %or.cond21.not.i.i22.not = and i1 %28, %29
  br i1 %or.cond21.not.i.i22.not, label %Abc_Tt4Check2.exit25.thread, label %31

Abc_Tt4Check2.exit25.thread:                      ; preds = %27, %25, %Abc_Tt4Check2.exit.thread, %Abc_Tt4Check2.exit25
  %.0.i.i2477 = phi i32 [ 0, %Abc_Tt4Check2.exit25 ], [ 4, %27 ], [ 8, %25 ], [ 12, %Abc_Tt4Check2.exit.thread ]
  %30 = or disjoint i32 %.0.i.i75, %.0.i.i2477
  br label %84

31:                                               ; preds = %Abc_Tt4Check2.exit._crit_edge, %Abc_Tt4Check2.exit25
  %.pre-phi = phi i32 [ %.pre, %Abc_Tt4Check2.exit._crit_edge ], [ %18, %Abc_Tt4Check2.exit25 ]
  %32 = and i32 %0, 1285
  %33 = and i32 %4, 1285
  %34 = and i32 %.pre-phi, 1285
  %35 = lshr i32 %0, 5
  %36 = and i32 %35, 1285
  %37 = icmp eq i32 %32, %33
  %38 = icmp eq i32 %32, %34
  %or.cond.i.i26 = and i1 %38, %37
  br i1 %or.cond.i.i26, label %Abc_Tt4Check2.exit32.thread, label %39

39:                                               ; preds = %31
  %40 = icmp eq i32 %32, %36
  %or.cond19.i.i27 = and i1 %37, %40
  br i1 %or.cond19.i.i27, label %Abc_Tt4Check2.exit32.thread, label %41

41:                                               ; preds = %39
  %or.cond20.i.i28 = and i1 %38, %40
  br i1 %or.cond20.i.i28, label %Abc_Tt4Check2.exit32.thread, label %Abc_Tt4Check2.exit32

Abc_Tt4Check2.exit32:                             ; preds = %41
  %42 = icmp eq i32 %36, %33
  %43 = icmp eq i32 %36, %34
  %or.cond21.not.i.i29.not = and i1 %42, %43
  br i1 %or.cond21.not.i.i29.not, label %Abc_Tt4Check2.exit32.thread, label %Abc_Tt4Check2.exit32._crit_edge

Abc_Tt4Check2.exit32._crit_edge:                  ; preds = %Abc_Tt4Check2.exit32
  %.pre92 = lshr i32 %0, 8
  br label %58

Abc_Tt4Check2.exit32.thread:                      ; preds = %41, %39, %31, %Abc_Tt4Check2.exit32
  %.0.i.i3179 = phi i32 [ 32, %Abc_Tt4Check2.exit32 ], [ 33, %41 ], [ 34, %39 ], [ 35, %31 ]
  %44 = lshr i32 %0, 8
  %45 = and i32 %0, 51
  %46 = and i32 %2, 51
  %47 = and i32 %44, 51
  %48 = lshr i32 %0, 10
  %49 = and i32 %48, 51
  %50 = icmp eq i32 %45, %46
  %51 = icmp eq i32 %45, %47
  %or.cond.i.i33 = and i1 %51, %50
  br i1 %or.cond.i.i33, label %Abc_Tt4Check2.exit39.thread, label %52

52:                                               ; preds = %Abc_Tt4Check2.exit32.thread
  %53 = icmp eq i32 %45, %49
  %or.cond19.i.i34 = and i1 %50, %53
  br i1 %or.cond19.i.i34, label %Abc_Tt4Check2.exit39.thread, label %54

54:                                               ; preds = %52
  %or.cond20.i.i35 = and i1 %51, %53
  br i1 %or.cond20.i.i35, label %Abc_Tt4Check2.exit39.thread, label %Abc_Tt4Check2.exit39

Abc_Tt4Check2.exit39:                             ; preds = %54
  %55 = icmp eq i32 %49, %46
  %56 = icmp eq i32 %49, %47
  %or.cond21.not.i.i36.not = and i1 %55, %56
  br i1 %or.cond21.not.i.i36.not, label %Abc_Tt4Check2.exit39.thread, label %58

Abc_Tt4Check2.exit39.thread:                      ; preds = %54, %52, %Abc_Tt4Check2.exit32.thread, %Abc_Tt4Check2.exit39
  %.0.i.i3881 = phi i32 [ 0, %Abc_Tt4Check2.exit39 ], [ 4, %54 ], [ 8, %52 ], [ 12, %Abc_Tt4Check2.exit32.thread ]
  %57 = or disjoint i32 %.0.i.i3179, %.0.i.i3881
  br label %84

58:                                               ; preds = %Abc_Tt4Check2.exit32._crit_edge, %Abc_Tt4Check2.exit39
  %.pre-phi93 = phi i32 [ %.pre92, %Abc_Tt4Check2.exit32._crit_edge ], [ %44, %Abc_Tt4Check2.exit39 ]
  %59 = and i32 %0, 85
  %60 = and i32 %4, 85
  %61 = and i32 %.pre-phi93, 85
  %62 = lshr i32 %0, 9
  %63 = and i32 %62, 85
  %64 = icmp eq i32 %59, %60
  %65 = icmp eq i32 %59, %61
  %or.cond.i.i40 = and i1 %65, %64
  br i1 %or.cond.i.i40, label %Abc_Tt4Check2.exit46.thread, label %66

66:                                               ; preds = %58
  %67 = icmp eq i32 %59, %63
  %or.cond19.i.i41 = and i1 %64, %67
  br i1 %or.cond19.i.i41, label %Abc_Tt4Check2.exit46.thread, label %68

68:                                               ; preds = %66
  %or.cond20.i.i42 = and i1 %65, %67
  br i1 %or.cond20.i.i42, label %Abc_Tt4Check2.exit46.thread, label %Abc_Tt4Check2.exit46

Abc_Tt4Check2.exit46:                             ; preds = %68
  %69 = icmp eq i32 %63, %60
  %70 = icmp eq i32 %63, %61
  %or.cond21.not.i.i43.not = and i1 %69, %70
  br i1 %or.cond21.not.i.i43.not, label %Abc_Tt4Check2.exit46.thread, label %84

Abc_Tt4Check2.exit46.thread:                      ; preds = %68, %66, %58, %Abc_Tt4Check2.exit46
  %.0.i.i4583 = phi i32 [ 48, %Abc_Tt4Check2.exit46 ], [ 49, %68 ], [ 50, %66 ], [ 51, %58 ]
  %71 = and i32 %0, 771
  %72 = and i32 %2, 771
  %73 = and i32 %.pre-phi, 771
  %74 = lshr i32 %0, 6
  %75 = and i32 %74, 771
  %76 = icmp eq i32 %71, %72
  %77 = icmp eq i32 %71, %73
  %or.cond.i.i47 = and i1 %77, %76
  br i1 %or.cond.i.i47, label %Abc_Tt4Check2.exit53.thread, label %78

78:                                               ; preds = %Abc_Tt4Check2.exit46.thread
  %79 = icmp eq i32 %71, %75
  %or.cond19.i.i48 = and i1 %76, %79
  br i1 %or.cond19.i.i48, label %Abc_Tt4Check2.exit53.thread, label %80

80:                                               ; preds = %78
  %or.cond20.i.i49 = and i1 %77, %79
  br i1 %or.cond20.i.i49, label %Abc_Tt4Check2.exit53.thread, label %Abc_Tt4Check2.exit53

Abc_Tt4Check2.exit53:                             ; preds = %80
  %81 = icmp eq i32 %75, %72
  %82 = icmp eq i32 %75, %73
  %or.cond21.not.i.i50.not = and i1 %81, %82
  br i1 %or.cond21.not.i.i50.not, label %Abc_Tt4Check2.exit53.thread, label %84

Abc_Tt4Check2.exit53.thread:                      ; preds = %80, %78, %Abc_Tt4Check2.exit46.thread, %Abc_Tt4Check2.exit53
  %.0.i.i5285 = phi i32 [ 0, %Abc_Tt4Check2.exit53 ], [ 4, %80 ], [ 8, %78 ], [ 12, %Abc_Tt4Check2.exit46.thread ]
  %83 = or disjoint i32 %.0.i.i4583, %.0.i.i5285
  br label %84

84:                                               ; preds = %Abc_Tt4Check2.exit46, %Abc_Tt4Check2.exit53, %Abc_Tt4Check2.exit53.thread, %Abc_Tt4Check2.exit39.thread, %Abc_Tt4Check2.exit25.thread
  %.0 = phi i32 [ %30, %Abc_Tt4Check2.exit25.thread ], [ %57, %Abc_Tt4Check2.exit39.thread ], [ %83, %Abc_Tt4Check2.exit53.thread ], [ -1, %Abc_Tt4Check2.exit53 ], [ -1, %Abc_Tt4Check2.exit46 ]
  ret i32 %.0
}